Certificate:
    Data:
        Version: 3 (0x2)
        Serial Number:
            9f:f0:be:e6:a3:61:ed:78:95:5f:36:78:08:57:b3:fc
        Signature Algorithm: ecdsa-with-SHA512
        Issuer: CN=myCA
        Validity
            Not Before: Feb 23 19:15:01 2024 GMT
            Not After : May 28 19:15:01 2026 GMT
        Subject: CN=ivanov4
        Subject Public Key Info:
            Public Key Algorithm: id-ecPublicKey
                Public-Key: (384 bit)
                pub:
                    04:65:2f:e5:ec:4a:e1:a2:99:18:c0:49:1e:19:19:
                    a1:c9:da:79:85:93:99:85:bf:0f:7b:02:34:eb:e3:
                    fe:04:ba:54:46:41:5d:07:c9:52:3c:cc:4c:64:c7:
                    1a:a2:ae:d8:1e:b6:73:fd:23:3c:cb:4f:81:43:24:
                    ef:7c:f8:94:58:96:95:b5:bf:bd:ec:b1:17:cb:d6:
                    1f:b8:68:de:bf:53:0c:97:a5:da:75:95:00:9e:b6:
                    ae:dc:79:ed:bf:dd:be
                ASN1 OID: secp384r1
                NIST CURVE: P-384
        X509v3 extensions:
            X509v3 Basic Constraints: 
                CA:FALSE
            X509v3 Subject Key Identifier: 
                C5:9B:E5:7A:CA:8A:38:08:33:98:0C:06:F8:B1:0E:2D:F1:A6:90:83
            X509v3 Authority Key Identifier: 
                keyid:1C:4B:A9:C6:6B:43:4C:01:E0:D7:95:0B:FF:98:E8:37:C4:B5:BB:33
                DirName:/CN=myCA
                serial:46:CA:D6:AD:0B:9D:B3:5E:A8:C9:0A:60:9A:DB:6B:B3:E9:80:6C:0C
            X509v3 Extended Key Usage: 
                TLS Web Client Authentication
            X509v3 Key Usage: 
                Digital Signature
            X509v3 Subject Alternative Name: 
                email:ivanov4
    Signature Algorithm: ecdsa-with-SHA512
    Signature Value:
        30:65:02:30:4d:25:c3:db:76:5c:e0:ce:a0:d7:1b:fe:14:86:
        a0:4b:1b:ae:23:74:66:64:24:47:46:49:28:bb:76:6a:ef:4b:
        25:e5:9f:14:e0:7d:42:40:41:79:5f:1b:19:5e:e8:5f:02:31:
        00:be:6a:bc:65:b8:c0:23:58:52:83:da:b5:ae:0f:9a:7f:0d:
        be:1b:91:43:ee:a7:62:20:b7:0f:0e:13:88:02:17:cb:ce:51:
        23:7c:40:a4:7f:bf:0b:8c:13:0e:6c:dd:af
-----BEGIN CERTIFICATE-----
MIICDTCCAZOgAwIBAgIRAJ/wvuajYe14lV82eAhXs/wwCgYIKoZIzj0EAwQwDzEN
MAsGA1UEAwwEbXlDQTAeFw0yNDAyMjMxOTE1MDFaFw0yNjA1MjgxOTE1MDFaMBIx
EDAOBgNVBAMMB2l2YW5vdjQwdjAQBgcqhkjOPQIBBgUrgQQAIgNiAARlL+XsSuGi
mRjASR4ZGaHJ2nmFk5mFvw97AjTr4/4EulRGQV0HyVI8zExkxxqirtgetnP9IzzL
T4FDJO98+JRYlpW1v73ssRfL1h+4aN6/UwyXpdp1lQCetq7cee2/3b6jga8wgaww
CQYDVR0TBAIwADAdBgNVHQ4EFgQUxZvlesqKOAgzmAwG+LEOLfGmkIMwSgYDVR0j
BEMwQYAUHEupxmtDTAHg15UL/5joN8S1uzOhE6QRMA8xDTALBgNVBAMMBG15Q0GC
FEbK1q0LnbNeqMkKYJrba7PpgGwMMBMGA1UdJQQMMAoGCCsGAQUFBwMCMAsGA1Ud
DwQEAwIHgDASBgNVHREECzAJgQdpdmFub3Y0MAoGCCqGSM49BAMEA2gAMGUCME0l
w9t2XODOoNcb/hSGoEsbriN0ZmQkR0ZJKLt2au9LJeWfFOB9QkBBeV8bGV7oXwIx
AL5qvGW4wCNYUoPata4Pmn8NvhuRQ+6nYiC3Dw4TiAIXy85RI3xApH+/C4wTDmzd
rw==
-----END CERTIFICATE-----
